; Function Attrs: mustprogress uwtable
define noundef ptr @_ZNK6google8protobuf11DoubleValue18_InternalSerializeEPhPNS0_2io19EpsCopyOutputStreamE(ptr nocapture noundef nonnull readonly align 8 dereferenceable(32) %this, ptr noundef %target, ptr noundef %stream) unnamed_addr #3 align 2 {
entry:
  %0 = getelementptr inbounds i8, ptr %this, i64 16
  %1 = load double, ptr %0, align 8
  %cmp.not = tail call i1 @llvm.is.fpclass.f64(double %1, i32 64)
  br i1 %cmp.not, label %if.end, label %if.then

if.then:                                          ; preds = %entry
  %2 = bitcast double %1 to i64
  %3 = load ptr, ptr %stream, align 8
  %cmp.not.i = icmp ugt ptr %3, %target
  br i1 %cmp.not.i, label %_ZN6google8protobuf2io19EpsCopyOutputStream11EnsureSpaceEPh.exit, label %if.then.i6

if.then.i6:                                       ; preds = %if.then
  %call.i7 = tail call noundef ptr @_ZN6google8protobuf2io19EpsCopyOutputStream19EnsureSpaceFallbackEPh(ptr noundef nonnull align 8 dereferenceable(60) %stream, ptr noundef %target)
  %.pre = load i64, ptr %0, align 8
  br label %_ZN6google8protobuf2io19EpsCopyOutputStream11EnsureSpaceEPh.exit

_ZN6google8protobuf2io19EpsCopyOutputStream11EnsureSpaceEPh.exit: ; preds = %if.then, %if.then.i6
  %4 = phi i64 [ %.pre, %if.then.i6 ], [ %2, %if.then ]
  %retval.0.i = phi ptr [ %call.i7, %if.then.i6 ], [ %target, %if.then ]
  %incdec.ptr2.i.i = getelementptr inbounds i8, ptr %retval.0.i, i64 1
  store i8 9, ptr %retval.0.i, align 1
  store i64 %4, ptr %incdec.ptr2.i.i, align 1
  %add.ptr.i = getelementptr inbounds i8, ptr %retval.0.i, i64 9
  br label %if.end

if.end:                                           ; preds = %_ZN6google8protobuf2io19EpsCopyOutputStream11EnsureSpaceEPh.exit, %entry
  %target.addr.0 = phi ptr [ %add.ptr.i, %_ZN6google8protobuf2io19EpsCopyOutputStream11EnsureSpaceEPh.exit ], [ %target, %entry ]
  %_internal_metadata_ = getelementptr inbounds i8, ptr %this, i64 8
  %5 = load i64, ptr %_internal_metadata_, align 8
  %and.i28 = and i64 %5, 1
  %tobool.i29.not = icmp eq i64 %and.i28, 0
  br i1 %tobool.i29.not, label %if.end10, label %if.then.i

if.then.i:                                        ; preds = %if.end
  %and.i = and i64 %5, -2
  %6 = inttoptr i64 %and.i to ptr
  %unknown_fields.i = getelementptr inbounds i8, ptr %6, i64 8
  %call9 = tail call noundef ptr @_ZN6google8protobuf8internal10WireFormat37InternalSerializeUnknownFieldsToArrayERKNS0_15UnknownFieldSetEPhPNS0_2io19EpsCopyOutputStreamE(ptr noundef nonnull align 8 dereferenceable(24) %unknown_fields.i, ptr noundef %target.addr.0, ptr noundef %stream)
  br label %if.end10

if.end10:                                         ; preds = %if.then.i, %if.end
  %target.addr.1 = phi ptr [ %call9, %if.then.i ], [ %target.addr.0, %if.end ]
  ret ptr %target.addr.1
}